(dp0
Vengine
p1
Vxelatex
p2
sVpackages
p3
c__builtin__
set
p4
((lp5
VHUHH_BEAMER
p6
atp7
Rp8
sVfiles_with_guttermarks
p9
g4
((lp10
V/Users/nyang/Dropbox/__Documents/lecture/2016-2/EvoGame.khu/EvoGameCoop/./Preamble_Evol_Lec.tex
p11
aS'Preamble_Evol_Lec.tex'
p12
atp13
Rp14
sVsynctex
p15
I01
s.